target datalayout = "e-m:e-p270:32:32-p271:32:32-p272:64:64-i64:64-i128:128-f80:128-n8:16:32:64-S128"
target triple = "x86_64-pc-linux-gnu"

%struct.lua_TValue = type { %union.Value, [1 x i32], i32 }
%union.Value = type { ptr }
%struct.lua_State = type { i8, i8, i8, i8, i8, i8, i8, ptr, ptr, ptr, ptr, ptr, ptr, ptr, ptr, i32, i32, i16, i16, i32, ptr, ptr, ptr, ptr, ptr }
%struct.LuaTable = type { i8, i8, i8, i8, i8, i8, i8, i8, i32, %union.anon.4, ptr, ptr, ptr, ptr }
%union.anon.4 = type { i32 }
%struct.CallInfo = type { ptr, ptr, ptr, ptr, i32, i32 }

; Function Attrs: mustprogress uwtable
define internal noundef i32 @_ZL13luauF_tunpackP9lua_StateP10lua_TValueS2_iS2_i(ptr noundef %0, ptr noundef %1, ptr noundef %2, i32 noundef %3, ptr noundef %4, i32 noundef %5) #3 {
  %7 = alloca i32, align 4
  %8 = alloca ptr, align 8
  %9 = alloca ptr, align 8
  %10 = alloca ptr, align 8
  %11 = alloca i32, align 4
  %12 = alloca ptr, align 8
  %13 = alloca i32, align 4
  %14 = alloca ptr, align 8
  %15 = alloca i32, align 4
  %16 = alloca ptr, align 8
  %17 = alloca i32, align 4
  %18 = alloca ptr, align 8
  %19 = alloca ptr, align 8
  %20 = alloca i32, align 4
  store ptr %0, ptr %8, align 8, !tbaa !4
  store ptr %1, ptr %9, align 8, !tbaa !9
  store ptr %2, ptr %10, align 8, !tbaa !9
  store i32 %3, ptr %11, align 4, !tbaa !11
  store ptr %4, ptr %12, align 8, !tbaa !9
  store i32 %5, ptr %13, align 4, !tbaa !11
  %21 = load i32, ptr %13, align 4, !tbaa !11
  %22 = icmp sge i32 %21, 1
  br i1 %22, label %23, label %141

23:                                               ; preds = %6
  %24 = load i32, ptr %11, align 4, !tbaa !11
  %25 = icmp slt i32 %24, 0
  br i1 %25, label %26, label %141

26:                                               ; preds = %23
  %27 = load ptr, ptr %10, align 8, !tbaa !9
  %28 = getelementptr inbounds nuw %struct.lua_TValue, ptr %27, i32 0, i32 2
  %29 = load i32, ptr %28, align 4, !tbaa !13
  %30 = icmp eq i32 %29, 6
  br i1 %30, label %31, label %141

31:                                               ; preds = %26
  call void @llvm.lifetime.start.p0(i64 8, ptr %14) #17
  %32 = load ptr, ptr %10, align 8, !tbaa !9
  %33 = getelementptr inbounds nuw %struct.lua_TValue, ptr %32, i32 0, i32 0
  %34 = load ptr, ptr %33, align 8, !tbaa !15
  store ptr %34, ptr %14, align 8, !tbaa !57
  call void @llvm.lifetime.start.p0(i64 4, ptr %15) #17
  store i32 -1, ptr %15, align 4, !tbaa !11
  %35 = load i32, ptr %13, align 4, !tbaa !11
  %36 = icmp eq i32 %35, 1
  br i1 %36, label %37, label %40

37:                                               ; preds = %31
  %38 = load ptr, ptr %14, align 8, !tbaa !57
  %39 = call noundef i32 @_Z9luaH_getnP8LuaTable(ptr noundef %38)
  store i32 %39, ptr %15, align 4, !tbaa !11
  br label %66

40:                                               ; preds = %31
  %41 = load i32, ptr %13, align 4, !tbaa !11
  %42 = icmp eq i32 %41, 3
  br i1 %42, label %43, label %65

43:                                               ; preds = %40
  %44 = load ptr, ptr %12, align 8, !tbaa !9
  %45 = getelementptr inbounds nuw %struct.lua_TValue, ptr %44, i32 0, i32 2
  %46 = load i32, ptr %45, align 4, !tbaa !13
  %47 = icmp eq i32 %46, 3
  br i1 %47, label %48, label %65

48:                                               ; preds = %43
  %49 = load ptr, ptr %12, align 8, !tbaa !9
  %50 = getelementptr inbounds %struct.lua_TValue, ptr %49, i64 1
  %51 = getelementptr inbounds nuw %struct.lua_TValue, ptr %50, i32 0, i32 2
  %52 = load i32, ptr %51, align 4, !tbaa !13
  %53 = icmp eq i32 %52, 3
  br i1 %53, label %54, label %65

54:                                               ; preds = %48
  %55 = load ptr, ptr %12, align 8, !tbaa !9
  %56 = getelementptr inbounds nuw %struct.lua_TValue, ptr %55, i32 0, i32 0
  %57 = load double, ptr %56, align 8, !tbaa !15
  %58 = fcmp oeq double %57, 1.000000e+00
  br i1 %58, label %59, label %65

59:                                               ; preds = %54
  %60 = load ptr, ptr %12, align 8, !tbaa !9
  %61 = getelementptr inbounds %struct.lua_TValue, ptr %60, i64 1
  %62 = getelementptr inbounds nuw %struct.lua_TValue, ptr %61, i32 0, i32 0
  %63 = load double, ptr %62, align 8, !tbaa !15
  %64 = fptosi double %63 to i32
  store i32 %64, ptr %15, align 4, !tbaa !11
  br label %65

65:                                               ; preds = %59, %54, %48, %43, %40
  br label %66

66:                                               ; preds = %65, %37
  %67 = load i32, ptr %15, align 4, !tbaa !11
  %68 = icmp sge i32 %67, 0
  br i1 %68, label %69, label %137

69:                                               ; preds = %66
  %70 = load i32, ptr %15, align 4, !tbaa !11
  %71 = load ptr, ptr %14, align 8, !tbaa !57
  %72 = getelementptr inbounds nuw %struct.LuaTable, ptr %71, i32 0, i32 8
  %73 = load i32, ptr %72, align 8, !tbaa !62
  %74 = icmp sle i32 %70, %73
  br i1 %74, label %75, label %137

75:                                               ; preds = %69
  %76 = load ptr, ptr %8, align 8, !tbaa !4
  %77 = getelementptr inbounds nuw %struct.lua_State, ptr %76, i32 0, i32 11
  %78 = load ptr, ptr %77, align 8, !tbaa !63
  %79 = load ptr, ptr %9, align 8, !tbaa !9
  %80 = ptrtoint ptr %78 to i64
  %81 = ptrtoint ptr %79 to i64
  %82 = sub i64 %80, %81
  %83 = sdiv exact i64 %82, 16
  %84 = trunc i64 %83 to i32
  %85 = load i32, ptr %15, align 4, !tbaa !11
  %86 = icmp sge i32 %84, %85
  br i1 %86, label %87, label %137

87:                                               ; preds = %75
  %88 = load i32, ptr %15, align 4, !tbaa !11
  %89 = load i32, ptr %13, align 4, !tbaa !11
  %90 = add nsw i32 %88, %89
  %91 = icmp sle i32 %90, 8000
  br i1 %91, label %92, label %137

92:                                               ; preds = %87
  call void @llvm.lifetime.start.p0(i64 8, ptr %16) #17
  %93 = load ptr, ptr %14, align 8, !tbaa !57
  %94 = getelementptr inbounds nuw %struct.LuaTable, ptr %93, i32 0, i32 11
  %95 = load ptr, ptr %94, align 8, !tbaa !64
  store ptr %95, ptr %16, align 8, !tbaa !9
  call void @llvm.lifetime.start.p0(i64 4, ptr %17) #17
  store i32 0, ptr %17, align 4, !tbaa !11
  br label %96

96:                                               ; preds = %112, %92
  %97 = load i32, ptr %17, align 4, !tbaa !11
  %98 = load i32, ptr %15, align 4, !tbaa !11
  %99 = icmp slt i32 %97, %98
  br i1 %99, label %101, label %100

100:                                              ; preds = %96
  call void @llvm.lifetime.end.p0(i64 4, ptr %17) #17
  br label %115

101:                                              ; preds = %96
  call void @llvm.lifetime.start.p0(i64 8, ptr %18) #17
  %102 = load ptr, ptr %16, align 8, !tbaa !9
  %103 = load i32, ptr %17, align 4, !tbaa !11
  %104 = sext i32 %103 to i64
  %105 = getelementptr inbounds %struct.lua_TValue, ptr %102, i64 %104
  store ptr %105, ptr %18, align 8, !tbaa !9
  call void @llvm.lifetime.start.p0(i64 8, ptr %19) #17
  %106 = load ptr, ptr %9, align 8, !tbaa !9
  %107 = load i32, ptr %17, align 4, !tbaa !11
  %108 = sext i32 %107 to i64
  %109 = getelementptr inbounds %struct.lua_TValue, ptr %106, i64 %108
  store ptr %109, ptr %19, align 8, !tbaa !9
  %110 = load ptr, ptr %18, align 8, !tbaa !9
  %111 = load ptr, ptr %19, align 8, !tbaa !9
  call void @llvm.memcpy.p0.p0.i64(ptr align 8 %111, ptr align 8 %110, i64 16, i1 false), !tbaa.struct !61
  call void @llvm.lifetime.end.p0(i64 8, ptr %19) #17
  call void @llvm.lifetime.end.p0(i64 8, ptr %18) #17
  br label %112

112:                                              ; preds = %101
  %113 = load i32, ptr %17, align 4, !tbaa !11
  %114 = add nsw i32 %113, 1
  store i32 %114, ptr %17, align 4, !tbaa !11
  br label %96, !llvm.loop !65

115:                                              ; preds = %100
  %116 = load ptr, ptr %8, align 8, !tbaa !4
  %117 = getelementptr inbounds nuw %struct.lua_State, ptr %116, i32 0, i32 10
  %118 = load ptr, ptr %117, align 8, !tbaa !66
  %119 = getelementptr inbounds nuw %struct.CallInfo, ptr %118, i32 0, i32 2
  %120 = load ptr, ptr %119, align 8, !tbaa !67
  %121 = load ptr, ptr %9, align 8, !tbaa !9
  %122 = load i32, ptr %15, align 4, !tbaa !11
  %123 = sext i32 %122 to i64
  %124 = getelementptr inbounds %struct.lua_TValue, ptr %121, i64 %123
  %125 = icmp ult ptr %120, %124
  br i1 %125, label %126, label %135

126:                                              ; preds = %115
  %127 = load ptr, ptr %9, align 8, !tbaa !9
  %128 = load i32, ptr %15, align 4, !tbaa !11
  %129 = sext i32 %128 to i64
  %130 = getelementptr inbounds %struct.lua_TValue, ptr %127, i64 %129
  %131 = load ptr, ptr %8, align 8, !tbaa !4
  %132 = getelementptr inbounds nuw %struct.lua_State, ptr %131, i32 0, i32 10
  %133 = load ptr, ptr %132, align 8, !tbaa !66
  %134 = getelementptr inbounds nuw %struct.CallInfo, ptr %133, i32 0, i32 2
  store ptr %130, ptr %134, align 8, !tbaa !67
  br label %135

135:                                              ; preds = %126, %115
  %136 = load i32, ptr %15, align 4, !tbaa !11
  store i32 %136, ptr %7, align 4
  store i32 1, ptr %20, align 4
  call void @llvm.lifetime.end.p0(i64 8, ptr %16) #17
  br label %138

137:                                              ; preds = %87, %75, %69, %66
  store i32 0, ptr %20, align 4
  br label %138

138:                                              ; preds = %137, %135
  call void @llvm.lifetime.end.p0(i64 4, ptr %15) #17
  call void @llvm.lifetime.end.p0(i64 8, ptr %14) #17
  %139 = load i32, ptr %20, align 4
  switch i32 %139, label %144 [
    i32 0, label %140
    i32 1, label %142
  ]

140:                                              ; preds = %138
  br label %141

141:                                              ; preds = %140, %26, %23, %6
  store i32 -1, ptr %7, align 4
  br label %142

142:                                              ; preds = %141, %138
  %143 = load i32, ptr %7, align 4
  ret i32 %143

144:                                              ; preds = %138
  unreachable
}