; Function Attrs: mustprogress uwtable
define internal noundef range(i32 -1, -2147483648) i32 @_ZL13luauF_tunpackP9lua_StateP10lua_TValueS2_iS2_i(ptr noundef readonly captures(none) %0, ptr noundef %1, ptr noundef readonly captures(none) %2, i32 noundef %3, ptr noundef readonly captures(none) %4, i32 noundef %5) #8 {
  %7 = icmp sgt i32 %5, 0
  %8 = icmp slt i32 %3, 0
  %or.cond = and i1 %8, %7
  br i1 %or.cond, label %9, label %.thread49

9:                                                ; preds = %6
  %10 = getelementptr inbounds nuw i8, ptr %2, i64 12
  %11 = load i32, ptr %10, align 4, !tbaa !4
  %12 = icmp eq i32 %11, 6
  br i1 %12, label %13, label %.thread49

13:                                               ; preds = %9
  %14 = load ptr, ptr %2, align 8, !tbaa !9
  switch i32 %5, label %.thread49 [
    i32 1, label %15
    i32 3, label %17
  ]

15:                                               ; preds = %13
  %16 = tail call noundef i32 @_Z9luaH_getnP8LuaTable(ptr noundef %14)
  br label %32

17:                                               ; preds = %13
  %18 = getelementptr inbounds nuw i8, ptr %4, i64 12
  %19 = load i32, ptr %18, align 4, !tbaa !4
  %20 = icmp eq i32 %19, 3
  br i1 %20, label %21, label %.thread49

21:                                               ; preds = %17
  %22 = getelementptr inbounds nuw i8, ptr %4, i64 16
  %23 = getelementptr inbounds nuw i8, ptr %4, i64 28
  %24 = load i32, ptr %23, align 4, !tbaa !4
  %25 = icmp eq i32 %24, 3
  br i1 %25, label %26, label %.thread49

26:                                               ; preds = %21
  %27 = load double, ptr %4, align 8, !tbaa !9
  %28 = fcmp oeq double %27, 1.000000e+00
  br i1 %28, label %29, label %.thread49

29:                                               ; preds = %26
  %30 = load double, ptr %22, align 8, !tbaa !9
  %31 = fptosi double %30 to i32
  br label %32

32:                                               ; preds = %29, %15
  %.039 = phi i32 [ %16, %15 ], [ %31, %29 ]
  %33 = icmp sgt i32 %.039, -1
  br i1 %33, label %34, label %.thread49

34:                                               ; preds = %32
  %35 = getelementptr inbounds nuw i8, ptr %14, i64 8
  %36 = load i32, ptr %35, align 8, !tbaa !57
  %.not = icmp sgt i32 %.039, %36
  br i1 %.not, label %.thread49, label %37

37:                                               ; preds = %34
  %38 = getelementptr inbounds nuw i8, ptr %0, i64 40
  %39 = load ptr, ptr %38, align 8, !tbaa !58
  %40 = ptrtoint ptr %39 to i64
  %41 = ptrtoint ptr %1 to i64
  %42 = sub i64 %40, %41
  %43 = lshr exact i64 %42, 4
  %44 = trunc i64 %43 to i32
  %.not43 = icmp sle i32 %.039, %44
  %45 = add nuw nsw i32 %.039, %5
  %46 = icmp samesign ult i32 %45, 8001
  %or.cond45 = select i1 %.not43, i1 %46, i1 false
  br i1 %or.cond45, label %47, label %.thread49

47:                                               ; preds = %37
  %48 = getelementptr inbounds nuw i8, ptr %14, i64 24
  %49 = load ptr, ptr %48, align 8, !tbaa !59
  %.not54 = icmp eq i32 %.039, 0
  br i1 %.not54, label %._crit_edge, label %.lr.ph.preheader

.lr.ph.preheader:                                 ; preds = %47
  %wide.trip.count = zext nneg i32 %.039 to i64
  br label %.lr.ph

._crit_edge:                                      ; preds = %.lr.ph, %47
  %.pre-phi = phi i64 [ 0, %47 ], [ %wide.trip.count, %.lr.ph ]
  %50 = getelementptr inbounds nuw i8, ptr %0, i64 32
  %51 = load ptr, ptr %50, align 8, !tbaa !60
  %52 = getelementptr inbounds nuw i8, ptr %51, i64 16
  %53 = load ptr, ptr %52, align 8, !tbaa !61
  %54 = getelementptr inbounds nuw %struct.lua_TValue, ptr %1, i64 %.pre-phi
  %55 = icmp ult ptr %53, %54
  br i1 %55, label %58, label %.thread49

.lr.ph:                                           ; preds = %.lr.ph.preheader, %.lr.ph
  %indvars.iv = phi i64 [ 0, %.lr.ph.preheader ], [ %indvars.iv.next, %.lr.ph ]
  %56 = getelementptr inbounds nuw %struct.lua_TValue, ptr %49, i64 %indvars.iv
  %57 = getelementptr inbounds nuw %struct.lua_TValue, ptr %1, i64 %indvars.iv
  tail call void @llvm.memcpy.p0.p0.i64(ptr noundef nonnull align 8 dereferenceable(16) %57, ptr noundef nonnull align 8 dereferenceable(16) %56, i64 16, i1 false), !tbaa.struct !56
  %indvars.iv.next = add nuw nsw i64 %indvars.iv, 1
  %exitcond.not = icmp eq i64 %indvars.iv.next, %wide.trip.count
  br i1 %exitcond.not, label %._crit_edge, label %.lr.ph, !llvm.loop !64

58:                                               ; preds = %._crit_edge
  store ptr %54, ptr %52, align 8, !tbaa !61
  br label %.thread49

.thread49:                                        ; preds = %13, %17, %21, %26, %32, %34, %37, %6, %9, %58, %._crit_edge
  %.1 = phi i32 [ %.039, %58 ], [ %.039, %._crit_edge ], [ -1, %9 ], [ -1, %6 ], [ -1, %37 ], [ -1, %34 ], [ -1, %32 ], [ -1, %26 ], [ -1, %21 ], [ -1, %17 ], [ -1, %13 ]
  ret i32 %.1
}